; Function Attrs: mustprogress uwtable
define internal void @_ZL25llama_sampler_chain_resetP13llama_sampler(ptr noundef readonly captures(none) %0) #0 {
  %2 = getelementptr inbounds nuw i8, ptr %0, i64 8
  %3 = load ptr, ptr %2, align 8, !tbaa !9
  %4 = getelementptr inbounds nuw i8, ptr %3, i64 8
  %5 = load ptr, ptr %4, align 8, !tbaa !193
  %6 = getelementptr inbounds nuw i8, ptr %3, i64 16
  %7 = load ptr, ptr %6, align 8, !tbaa !193
  %.not10 = icmp eq ptr %5, %7
  br i1 %.not10, label %._crit_edge, label %.lr.ph

._crit_edge:                                      ; preds = %llama_sampler_reset.exit, %1
  %8 = getelementptr inbounds nuw i8, ptr %3, i64 32
  store i64 0, ptr %8, align 8, !tbaa !201
  %9 = getelementptr inbounds nuw i8, ptr %3, i64 40
  store i32 0, ptr %9, align 8, !tbaa !207
  ret void

.lr.ph:                                           ; preds = %1, %llama_sampler_reset.exit
  %.sroa.07.011 = phi ptr [ %15, %llama_sampler_reset.exit ], [ %5, %1 ]
  %10 = load ptr, ptr %.sroa.07.011, align 8, !tbaa !39
  %11 = load ptr, ptr %10, align 8, !tbaa !3
  %12 = getelementptr inbounds nuw i8, ptr %11, i64 24
  %13 = load ptr, ptr %12, align 8, !tbaa !14
  %.not.i = icmp eq ptr %13, null
  br i1 %.not.i, label %llama_sampler_reset.exit, label %14

14:                                               ; preds = %.lr.ph
  tail call void %13(ptr noundef nonnull %10)
  br label %llama_sampler_reset.exit

llama_sampler_reset.exit:                         ; preds = %.lr.ph, %14
  %15 = getelementptr inbounds nuw i8, ptr %.sroa.07.011, i64 8
  %.not = icmp eq ptr %15, %7
  br i1 %.not, label %._crit_edge, label %.lr.ph
}